; Function Attrs: mustprogress uwtable
define noundef range(i32 0, 256) i32 @_ZN19OpenColorIO_v2_5dev22LoggingLevelFromStringEPKc(ptr noundef %0) local_unnamed_addr #5 personality ptr @__gxx_personality_v0 {
  %2 = alloca %"class.std::__cxx11::basic_string", align 8
  call void @llvm.lifetime.start.p0(i64 32, ptr nonnull %2) #25
  %.not = icmp eq ptr %0, null
  %3 = select i1 %.not, ptr @.str.7, ptr %0
  call void @_ZN11StringUtils5LowerB5cxx11EPKc(ptr dead_on_unwind nonnull writable sret(%"class.std::__cxx11::basic_string") align 8 %2, ptr noundef nonnull %3)
  %4 = call noundef i32 @_ZNKSt7__cxx1112basic_stringIcSt11char_traitsIcESaIcEE7compareEPKc(ptr noundef nonnull align 8 dereferenceable(32) %2, ptr noundef nonnull @.str.17) #25
  %5 = icmp eq i32 %4, 0
  br i1 %5, label %27, label %6

6:                                                ; preds = %1
  %7 = call noundef i32 @_ZNKSt7__cxx1112basic_stringIcSt11char_traitsIcESaIcEE7compareEPKc(ptr noundef nonnull align 8 dereferenceable(32) %2, ptr noundef nonnull @.str.12) #25
  %8 = icmp eq i32 %7, 0
  br i1 %8, label %27, label %9

9:                                                ; preds = %6
  %10 = call noundef i32 @_ZNKSt7__cxx1112basic_stringIcSt11char_traitsIcESaIcEE7compareEPKc(ptr noundef nonnull align 8 dereferenceable(32) %2, ptr noundef nonnull @.str.18) #25
  %11 = icmp eq i32 %10, 0
  br i1 %11, label %27, label %12

12:                                               ; preds = %9
  %13 = call noundef i32 @_ZNKSt7__cxx1112basic_stringIcSt11char_traitsIcESaIcEE7compareEPKc(ptr noundef nonnull align 8 dereferenceable(32) %2, ptr noundef nonnull @.str.13) #25
  %14 = icmp eq i32 %13, 0
  br i1 %14, label %27, label %15

15:                                               ; preds = %12
  %16 = call noundef i32 @_ZNKSt7__cxx1112basic_stringIcSt11char_traitsIcESaIcEE7compareEPKc(ptr noundef nonnull align 8 dereferenceable(32) %2, ptr noundef nonnull @.str.19) #25
  %17 = icmp eq i32 %16, 0
  br i1 %17, label %27, label %18

18:                                               ; preds = %15
  %19 = call noundef i32 @_ZNKSt7__cxx1112basic_stringIcSt11char_traitsIcESaIcEE7compareEPKc(ptr noundef nonnull align 8 dereferenceable(32) %2, ptr noundef nonnull @.str.14) #25
  %20 = icmp eq i32 %19, 0
  br i1 %20, label %27, label %21

21:                                               ; preds = %18
  %22 = call noundef i32 @_ZNKSt7__cxx1112basic_stringIcSt11char_traitsIcESaIcEE7compareEPKc(ptr noundef nonnull align 8 dereferenceable(32) %2, ptr noundef nonnull @.str.20) #25
  %23 = icmp eq i32 %22, 0
  br i1 %23, label %27, label %24

24:                                               ; preds = %21
  %25 = call noundef i32 @_ZNKSt7__cxx1112basic_stringIcSt11char_traitsIcESaIcEE7compareEPKc(ptr noundef nonnull align 8 dereferenceable(32) %2, ptr noundef nonnull @.str.15) #25
  %26 = icmp eq i32 %25, 0
  %spec.select = select i1 %26, i32 3, i32 255
  br label %27

27:                                               ; preds = %24, %21, %15, %18, %9, %12, %1, %6
  %.0 = phi i32 [ 0, %6 ], [ 0, %1 ], [ 1, %12 ], [ 1, %9 ], [ 2, %18 ], [ 2, %15 ], [ 3, %21 ], [ %spec.select, %24 ]
  %28 = load ptr, ptr %2, align 8, !tbaa !9
  %29 = getelementptr inbounds nuw i8, ptr %2, i64 16
  %30 = icmp eq ptr %28, %29
  br i1 %30, label %_ZNKSt7__cxx1112basic_stringIcSt11char_traitsIcESaIcEE11_M_is_localEv.exit.thread.i.i, label %_ZNKSt7__cxx1112basic_stringIcSt11char_traitsIcESaIcEE11_M_is_localEv.exit.i.i

_ZNKSt7__cxx1112basic_stringIcSt11char_traitsIcESaIcEE11_M_is_localEv.exit.thread.i.i: ; preds = %27
  %31 = getelementptr inbounds nuw i8, ptr %2, i64 8
  %32 = load i64, ptr %31, align 8, !tbaa !14
  %33 = icmp ult i64 %32, 16
  call void @llvm.assume(i1 %33)
  br label %_ZNSt7__cxx1112basic_stringIcSt11char_traitsIcESaIcEED2Ev.exit

_ZNKSt7__cxx1112basic_stringIcSt11char_traitsIcESaIcEE11_M_is_localEv.exit.i.i: ; preds = %27
  %34 = load i64, ptr %29, align 8, !tbaa !15
  %35 = add i64 %34, 1
  call void @_ZdlPvm(ptr noundef %28, i64 noundef %35) #26
  br label %_ZNSt7__cxx1112basic_stringIcSt11char_traitsIcESaIcEED2Ev.exit

_ZNSt7__cxx1112basic_stringIcSt11char_traitsIcESaIcEED2Ev.exit: ; preds = %_ZNKSt7__cxx1112basic_stringIcSt11char_traitsIcESaIcEE11_M_is_localEv.exit.thread.i.i, %_ZNKSt7__cxx1112basic_stringIcSt11char_traitsIcESaIcEE11_M_is_localEv.exit.i.i
  call void @llvm.lifetime.end.p0(i64 32, ptr nonnull %2) #25
  ret i32 %.0
}